; Function Attrs: mustprogress nounwind uwtable
define hidden void @_ZN7datalog3tabD2Ev(ptr noundef nonnull align 8 captures(address) dereferenceable(56) initializes((0, 8)) %0) unnamed_addr #4 align 2 personality ptr @__gxx_personality_v0 {
  store ptr getelementptr inbounds nuw inrange(-16, 192) (i8, ptr @_ZTVN7datalog3tabE, i64 16), ptr %0, align 8, !tbaa !211
  %2 = getelementptr inbounds nuw i8, ptr %0, i64 48
  %3 = load ptr, ptr %2, align 8, !tbaa !213
  %4 = icmp eq ptr %3, null
  br i1 %4, label %_Z7deallocIN7datalog3tab3impEEvPT_.exit, label %5

5:                                                ; preds = %1
  tail call void @_ZN7datalog3tab3impD2Ev(ptr noundef nonnull align 8 dereferenceable(3048) %3) #25
  invoke void @_ZN6memory10deallocateEPv(ptr noundef nonnull %3)
          to label %_Z7deallocIN7datalog3tab3impEEvPT_.exit unwind label %15

_Z7deallocIN7datalog3tab3impEEvPT_.exit:          ; preds = %1, %5
  store ptr getelementptr inbounds nuw inrange(-16, 192) (i8, ptr @_ZTVN7datalog11engine_baseE, i64 16), ptr %0, align 8, !tbaa !211
  %6 = getelementptr inbounds nuw i8, ptr %0, i64 16
  %7 = load ptr, ptr %6, align 8, !tbaa !217
  %8 = getelementptr inbounds nuw i8, ptr %0, i64 32
  %9 = icmp eq ptr %7, %8
  br i1 %9, label %_ZNKSt7__cxx1112basic_stringIcSt11char_traitsIcESaIcEE11_M_is_localEv.exit.thread.i.i.i, label %_ZNKSt7__cxx1112basic_stringIcSt11char_traitsIcESaIcEE11_M_is_localEv.exit.i.i.i

_ZNKSt7__cxx1112basic_stringIcSt11char_traitsIcESaIcEE11_M_is_localEv.exit.thread.i.i.i: ; preds = %_Z7deallocIN7datalog3tab3impEEvPT_.exit
  %10 = getelementptr inbounds nuw i8, ptr %0, i64 24
  %11 = load i64, ptr %10, align 8, !tbaa !207
  %12 = icmp ult i64 %11, 16
  tail call void @llvm.assume(i1 %12)
  br label %_ZN7datalog11engine_baseD2Ev.exit

_ZNKSt7__cxx1112basic_stringIcSt11char_traitsIcESaIcEE11_M_is_localEv.exit.i.i.i: ; preds = %_Z7deallocIN7datalog3tab3impEEvPT_.exit
  %13 = load i64, ptr %8, align 8, !tbaa !210
  %14 = add i64 %13, 1
  tail call void @_ZdlPvm(ptr noundef %7, i64 noundef %14) #24
  br label %_ZN7datalog11engine_baseD2Ev.exit

_ZN7datalog11engine_baseD2Ev.exit:                ; preds = %_ZNKSt7__cxx1112basic_stringIcSt11char_traitsIcESaIcEE11_M_is_localEv.exit.thread.i.i.i, %_ZNKSt7__cxx1112basic_stringIcSt11char_traitsIcESaIcEE11_M_is_localEv.exit.i.i.i
  ret void

15:                                               ; preds = %5
  %16 = landingpad { ptr, i32 }
          catch ptr null
  %17 = extractvalue { ptr, i32 } %16, 0
  tail call void @__clang_call_terminate(ptr %17) #26
  unreachable
}